(lp0
(lp1
S'_compcor_ncomponents_5_selector_pc10.linear1.wm0.global0.motion1.quadratic0.gm0.compcor1.csf0'
p2
aS'_csf_threshold_0.98'
p3
aS'_gm_threshold_0.7'
p4
aS'_target_angle_deg_90'
p5
aS'_threshold_0.2'
p6
aS'_wm_threshold_0.98'
p7
aa(lp8
S'_compcor_ncomponents_5_selector_pc10.linear1.wm1.global1.motion1.quadratic0.gm0.compcor0.csf1'
p9
aS'_csf_threshold_0.98'
p10
aS'_gm_threshold_0.7'
p11
aS'_target_angle_deg_90'
p12
aS'_threshold_0.2'
p13
aS'_wm_threshold_0.98'
p14
aa.